; Function Attrs: mustprogress uwtable
define dso_local void @_ZN10ImDrawList11AddCallbackEPFvPKS_PK9ImDrawCmdEPv(ptr noundef nonnull align 8 captures(none) dereferenceable(200) %0, ptr noundef %1, ptr noundef %2) local_unnamed_addr #9 align 2 {
  %.sroa.0.i6 = alloca %struct.ImVec4, align 8
  %.sroa.0.i = alloca %struct.ImVec4, align 8
  %4 = getelementptr inbounds nuw i8, ptr %0, i64 8
  %5 = load ptr, ptr %4, align 8, !tbaa !67
  %6 = load i32, ptr %0, align 8, !tbaa !66
  %7 = sext i32 %6 to i64
  %8 = getelementptr %struct.ImDrawCmd, ptr %5, i64 %7
  %9 = getelementptr i8, ptr %8, i64 -24
  %10 = load i32, ptr %9, align 8, !tbaa !68
  %.not = icmp eq i32 %10, 0
  br i1 %.not, label %46, label %11

11:                                               ; preds = %3
  call void @llvm.lifetime.start.p0(i64 16, ptr nonnull %.sroa.0.i)
  %12 = getelementptr inbounds nuw i8, ptr %0, i64 96
  call void @llvm.memcpy.p0.p0.i64(ptr noundef nonnull align 8 dereferenceable(16) %.sroa.0.i, ptr noundef nonnull align 8 dereferenceable(16) %12, i64 16, i1 false), !tbaa.struct !8
  %13 = getelementptr inbounds nuw i8, ptr %0, i64 112
  %14 = load ptr, ptr %13, align 8, !tbaa !84
  %15 = getelementptr inbounds nuw i8, ptr %0, i64 120
  %16 = load i32, ptr %15, align 8, !tbaa !85
  %17 = getelementptr inbounds nuw i8, ptr %0, i64 16
  %18 = load i32, ptr %17, align 8, !tbaa !72
  %19 = getelementptr inbounds nuw i8, ptr %0, i64 4
  %20 = load i32, ptr %19, align 4, !tbaa !41
  %21 = icmp eq i32 %6, %20
  br i1 %21, label %22, label %_ZN10ImDrawList10AddDrawCmdEv.exit

22:                                               ; preds = %11
  %23 = add nsw i32 %6, 1
  %.not.i.i.i = icmp eq i32 %6, 0
  br i1 %.not.i.i.i, label %_ZNK8ImVectorI9ImDrawCmdE14_grow_capacityEi.exit.i.i, label %24

24:                                               ; preds = %22
  %25 = sdiv i32 %6, 2
  %26 = add nsw i32 %25, %6
  br label %_ZNK8ImVectorI9ImDrawCmdE14_grow_capacityEi.exit.i.i

_ZNK8ImVectorI9ImDrawCmdE14_grow_capacityEi.exit.i.i: ; preds = %24, %22
  %27 = phi i32 [ %26, %24 ], [ 8, %22 ]
  %28 = tail call noundef i32 @llvm.smax.i32(i32 %27, i32 %23)
  %29 = sext i32 %28 to i64
  %30 = mul nsw i64 %29, 56
  %31 = tail call noundef ptr @_ZN5ImGui8MemAllocEm(i64 noundef %30)
  %32 = load ptr, ptr %4, align 8, !tbaa !42
  %.not6.i.i.i = icmp eq ptr %32, null
  br i1 %.not6.i.i.i, label %38, label %33

33:                                               ; preds = %_ZNK8ImVectorI9ImDrawCmdE14_grow_capacityEi.exit.i.i
  %34 = load i32, ptr %0, align 8, !tbaa !43
  %35 = sext i32 %34 to i64
  %36 = mul nsw i64 %35, 56
  tail call void @llvm.memcpy.p0.p0.i64(ptr align 8 %31, ptr nonnull align 8 %32, i64 %36, i1 false)
  %37 = load ptr, ptr %4, align 8, !tbaa !42
  tail call void @_ZN5ImGui7MemFreeEPv(ptr noundef %37)
  br label %38

38:                                               ; preds = %33, %_ZNK8ImVectorI9ImDrawCmdE14_grow_capacityEi.exit.i.i
  store ptr %31, ptr %4, align 8, !tbaa !42
  store i32 %28, ptr %19, align 4, !tbaa !41
  %.pre3.i.i = load i32, ptr %0, align 8, !tbaa !43
  %.pre = sext i32 %.pre3.i.i to i64
  br label %_ZN10ImDrawList10AddDrawCmdEv.exit

_ZN10ImDrawList10AddDrawCmdEv.exit:               ; preds = %11, %38
  %.pre-phi = phi i64 [ %7, %11 ], [ %.pre, %38 ]
  %39 = phi ptr [ %5, %11 ], [ %31, %38 ]
  %40 = getelementptr inbounds %struct.ImDrawCmd, ptr %39, i64 %.pre-phi
  call void @llvm.memcpy.p0.p0.i64(ptr noundef nonnull align 8 dereferenceable(16) %40, ptr noundef nonnull align 8 dereferenceable(16) %.sroa.0.i, i64 16, i1 false)
  %.sroa.5.0..sroa_idx.i = getelementptr inbounds nuw i8, ptr %40, i64 16
  store ptr %14, ptr %.sroa.5.0..sroa_idx.i, align 8
  %.sroa.6.0..sroa_idx.i = getelementptr inbounds nuw i8, ptr %40, i64 24
  store i32 %16, ptr %.sroa.6.0..sroa_idx.i, align 8
  %.sroa.7.0..sroa_idx.i = getelementptr inbounds nuw i8, ptr %40, i64 28
  store i32 %18, ptr %.sroa.7.0..sroa_idx.i, align 4
  %.sroa.8.0..sroa_idx.i = getelementptr inbounds nuw i8, ptr %40, i64 32
  tail call void @llvm.memset.p0.i64(ptr noundef nonnull align 8 dereferenceable(24) %.sroa.8.0..sroa_idx.i, i8 0, i64 24, i1 false)
  %41 = load i32, ptr %0, align 8, !tbaa !43
  %42 = add nsw i32 %41, 1
  store i32 %42, ptr %0, align 8, !tbaa !43
  call void @llvm.lifetime.end.p0(i64 16, ptr nonnull %.sroa.0.i)
  %43 = load ptr, ptr %4, align 8, !tbaa !67
  %44 = sext i32 %42 to i64
  %45 = getelementptr %struct.ImDrawCmd, ptr %43, i64 %44
  br label %46

46:                                               ; preds = %_ZN10ImDrawList10AddDrawCmdEv.exit, %3
  %.pre.i.i9 = phi ptr [ %43, %_ZN10ImDrawList10AddDrawCmdEv.exit ], [ %5, %3 ]
  %47 = phi i32 [ %42, %_ZN10ImDrawList10AddDrawCmdEv.exit ], [ %6, %3 ]
  %.pn = phi ptr [ %45, %_ZN10ImDrawList10AddDrawCmdEv.exit ], [ %8, %3 ]
  %48 = getelementptr i8, ptr %.pn, i64 -16
  store ptr %1, ptr %48, align 8, !tbaa !70
  %49 = getelementptr i8, ptr %.pn, i64 -8
  store ptr %2, ptr %49, align 8, !tbaa !90
  call void @llvm.lifetime.start.p0(i64 16, ptr nonnull %.sroa.0.i6)
  %50 = getelementptr inbounds nuw i8, ptr %0, i64 96
  call void @llvm.memcpy.p0.p0.i64(ptr noundef nonnull align 8 dereferenceable(16) %.sroa.0.i6, ptr noundef nonnull align 8 dereferenceable(16) %50, i64 16, i1 false), !tbaa.struct !8
  %51 = getelementptr inbounds nuw i8, ptr %0, i64 112
  %52 = load ptr, ptr %51, align 8, !tbaa !84
  %53 = getelementptr inbounds nuw i8, ptr %0, i64 120
  %54 = load i32, ptr %53, align 8, !tbaa !85
  %55 = getelementptr inbounds nuw i8, ptr %0, i64 16
  %56 = load i32, ptr %55, align 8, !tbaa !72
  %57 = getelementptr inbounds nuw i8, ptr %0, i64 4
  %58 = load i32, ptr %57, align 4, !tbaa !41
  %59 = icmp eq i32 %47, %58
  br i1 %59, label %60, label %_ZN10ImDrawList10AddDrawCmdEv.exit18

60:                                               ; preds = %46
  %61 = add nsw i32 %47, 1
  %.not.i.i.i14 = icmp eq i32 %47, 0
  br i1 %.not.i.i.i14, label %_ZNK8ImVectorI9ImDrawCmdE14_grow_capacityEi.exit.i.i15, label %62

62:                                               ; preds = %60
  %63 = sdiv i32 %47, 2
  %64 = add nsw i32 %63, %47
  br label %_ZNK8ImVectorI9ImDrawCmdE14_grow_capacityEi.exit.i.i15

_ZNK8ImVectorI9ImDrawCmdE14_grow_capacityEi.exit.i.i15: ; preds = %62, %60
  %65 = phi i32 [ %64, %62 ], [ 8, %60 ]
  %66 = tail call noundef i32 @llvm.smax.i32(i32 %65, i32 %61)
  %67 = sext i32 %66 to i64
  %68 = mul nsw i64 %67, 56
  %69 = tail call noundef ptr @_ZN5ImGui8MemAllocEm(i64 noundef %68)
  %70 = load ptr, ptr %4, align 8, !tbaa !42
  %.not6.i.i.i16 = icmp eq ptr %70, null
  br i1 %.not6.i.i.i16, label %76, label %71

71:                                               ; preds = %_ZNK8ImVectorI9ImDrawCmdE14_grow_capacityEi.exit.i.i15
  %72 = load i32, ptr %0, align 8, !tbaa !43
  %73 = sext i32 %72 to i64
  %74 = mul nsw i64 %73, 56
  tail call void @llvm.memcpy.p0.p0.i64(ptr align 8 %69, ptr nonnull align 8 %70, i64 %74, i1 false)
  %75 = load ptr, ptr %4, align 8, !tbaa !42
  tail call void @_ZN5ImGui7MemFreeEPv(ptr noundef %75)
  br label %76

76:                                               ; preds = %71, %_ZNK8ImVectorI9ImDrawCmdE14_grow_capacityEi.exit.i.i15
  store ptr %69, ptr %4, align 8, !tbaa !42
  store i32 %66, ptr %57, align 4, !tbaa !41
  %.pre3.i.i17 = load i32, ptr %0, align 8, !tbaa !43
  br label %_ZN10ImDrawList10AddDrawCmdEv.exit18

_ZN10ImDrawList10AddDrawCmdEv.exit18:             ; preds = %46, %76
  %77 = phi i32 [ %.pre3.i.i17, %76 ], [ %47, %46 ]
  %78 = phi ptr [ %69, %76 ], [ %.pre.i.i9, %46 ]
  %79 = sext i32 %77 to i64
  %80 = getelementptr inbounds %struct.ImDrawCmd, ptr %78, i64 %79
  call void @llvm.memcpy.p0.p0.i64(ptr noundef nonnull align 8 dereferenceable(16) %80, ptr noundef nonnull align 8 dereferenceable(16) %.sroa.0.i6, i64 16, i1 false)
  %.sroa.5.0..sroa_idx.i10 = getelementptr inbounds nuw i8, ptr %80, i64 16
  store ptr %52, ptr %.sroa.5.0..sroa_idx.i10, align 8
  %.sroa.6.0..sroa_idx.i11 = getelementptr inbounds nuw i8, ptr %80, i64 24
  store i32 %54, ptr %.sroa.6.0..sroa_idx.i11, align 8
  %.sroa.7.0..sroa_idx.i12 = getelementptr inbounds nuw i8, ptr %80, i64 28
  store i32 %56, ptr %.sroa.7.0..sroa_idx.i12, align 4
  %.sroa.8.0..sroa_idx.i13 = getelementptr inbounds nuw i8, ptr %80, i64 32
  tail call void @llvm.memset.p0.i64(ptr noundef nonnull align 8 dereferenceable(24) %.sroa.8.0..sroa_idx.i13, i8 0, i64 24, i1 false)
  %81 = load i32, ptr %0, align 8, !tbaa !43
  %82 = add nsw i32 %81, 1
  store i32 %82, ptr %0, align 8, !tbaa !43
  call void @llvm.lifetime.end.p0(i64 16, ptr nonnull %.sroa.0.i6)
  ret void
}